target datalayout = "e-m:e-p270:32:32-p271:32:32-p272:64:64-i64:64-i128:128-f80:128-n8:16:32:64-S128"
target triple = "x86_64-pc-linux-gnu"

%struct.AVFormatContext = type { ptr, ptr, ptr, ptr, ptr, i32, i32, ptr, i32, ptr, i32, ptr, ptr, i64, i64, i64, i32, i32, i32, i64, i64, ptr, i32, i32, ptr, i32, i32, i32, i32, ptr, i64, i32, i32, %struct.AVIOInterruptCB, i32, i32, i32, i32, i64, i32, i32, i32, i32, i32, i32, i32, i32, i32, i32, i32, i32, i64, i32, i32, i32, i32, i32, ptr, ptr, ptr, ptr, i32, ptr, ptr, ptr, ptr, i32, ptr, ptr, i64, ptr, ptr, ptr, i64 }
%struct.AVIOInterruptCB = type { ptr, ptr }
%struct.XMVDemuxContext = type { i16, i32, i32, i64, i64, i16, i16, i32, i32, i32, %struct.XMVVideoPacket, ptr }
%struct.XMVVideoPacket = type { i32, i32, i32, i64, i32, i32, i32, [4 x i8], i64, i64 }
%struct.XMVAudioPacket = type { i32, i32, i16, i16, i32, i16, i64, i16, i32, i16, i32, i32, i64, i32, i64 }

@.str.3 = private unnamed_addr constant [20 x i8] c"Uncommon version %u\00", align 1
@.str.4 = private unnamed_addr constant [45 x i8] c"Unsupported 5.1 ADPCM audio stream (0x%04X)\0A\00", align 1
@.str.5 = private unnamed_addr constant [40 x i8] c"Invalid parameters for audio track %u.\0A\00", align 1

; Function Attrs: alwaysinline nounwind uwtable
define internal i64 @avio_tell(ptr noundef %0) #4 {
  %2 = alloca ptr, align 8
  store ptr %0, ptr %2, align 8, !tbaa !36
  %3 = load ptr, ptr %2, align 8, !tbaa !36
  %4 = call i64 @avio_seek(ptr noundef %3, i64 noundef 0, i32 noundef 1)
  ret i64 %4
}

; Function Attrs: nounwind uwtable
define internal i32 @xmv_read_header(ptr noundef %0) #0 {
  %2 = alloca i32, align 4
  %3 = alloca ptr, align 8
  %4 = alloca ptr, align 8
  %5 = alloca ptr, align 8
  %6 = alloca i32, align 4
  %7 = alloca i32, align 4
  %8 = alloca i16, align 2
  %9 = alloca i32, align 4
  %10 = alloca ptr, align 8
  store ptr %0, ptr %3, align 8, !tbaa !16
  call void @llvm.lifetime.start.p0(i64 8, ptr %4) #8
  %11 = load ptr, ptr %3, align 8, !tbaa !16
  %12 = getelementptr inbounds nuw %struct.AVFormatContext, ptr %11, i32 0, i32 3
  %13 = load ptr, ptr %12, align 8, !tbaa !18
  store ptr %13, ptr %4, align 8, !tbaa !33
  call void @llvm.lifetime.start.p0(i64 8, ptr %5) #8
  %14 = load ptr, ptr %3, align 8, !tbaa !16
  %15 = getelementptr inbounds nuw %struct.AVFormatContext, ptr %14, i32 0, i32 4
  %16 = load ptr, ptr %15, align 8, !tbaa !35
  store ptr %16, ptr %5, align 8, !tbaa !36
  call void @llvm.lifetime.start.p0(i64 4, ptr %6) #8
  call void @llvm.lifetime.start.p0(i64 4, ptr %7) #8
  call void @llvm.lifetime.start.p0(i64 2, ptr %8) #8
  %17 = load ptr, ptr %3, align 8, !tbaa !16
  %18 = getelementptr inbounds nuw %struct.AVFormatContext, ptr %17, i32 0, i32 5
  %19 = load i32, ptr %18, align 8, !tbaa !37
  %20 = or i32 %19, 1
  store i32 %20, ptr %18, align 8, !tbaa !37
  %21 = load ptr, ptr %5, align 8, !tbaa !36
  %22 = call i64 @avio_skip(ptr noundef %21, i64 noundef 4)
  %23 = load ptr, ptr %5, align 8, !tbaa !36
  %24 = call i32 @avio_rl32(ptr noundef %23)
  store i32 %24, ptr %7, align 4, !tbaa !15
  %25 = load ptr, ptr %5, align 8, !tbaa !36
  %26 = call i64 @avio_skip(ptr noundef %25, i64 noundef 4)
  %27 = load ptr, ptr %5, align 8, !tbaa !36
  %28 = call i64 @avio_skip(ptr noundef %27, i64 noundef 4)
  %29 = load ptr, ptr %5, align 8, !tbaa !36
  %30 = call i32 @avio_rl32(ptr noundef %29)
  store i32 %30, ptr %6, align 4, !tbaa !15
  %31 = load i32, ptr %6, align 4, !tbaa !15
  %32 = icmp ne i32 %31, 4
  br i1 %32, label %33, label %39

33:                                               ; preds = %1
  %34 = load i32, ptr %6, align 4, !tbaa !15
  %35 = icmp ne i32 %34, 2
  br i1 %35, label %36, label %39

36:                                               ; preds = %33
  %37 = load ptr, ptr %3, align 8, !tbaa !16
  %38 = load i32, ptr %6, align 4, !tbaa !15
  call void (ptr, ptr, ...) @avpriv_request_sample(ptr noundef %37, ptr noundef @.str.3, i32 noundef %38)
  br label %39

39:                                               ; preds = %36, %33, %1
  %40 = load ptr, ptr %5, align 8, !tbaa !36
  %41 = call i32 @avio_rl32(ptr noundef %40)
  %42 = load ptr, ptr %4, align 8, !tbaa !33
  %43 = getelementptr inbounds nuw %struct.XMVDemuxContext, ptr %42, i32 0, i32 8
  store i32 %41, ptr %43, align 8, !tbaa !38
  %44 = load ptr, ptr %5, align 8, !tbaa !36
  %45 = call i32 @avio_rl32(ptr noundef %44)
  %46 = load ptr, ptr %4, align 8, !tbaa !33
  %47 = getelementptr inbounds nuw %struct.XMVDemuxContext, ptr %46, i32 0, i32 9
  store i32 %45, ptr %47, align 4, !tbaa !43
  %48 = load ptr, ptr %5, align 8, !tbaa !36
  %49 = call i32 @avio_rl32(ptr noundef %48)
  %50 = load ptr, ptr %4, align 8, !tbaa !33
  %51 = getelementptr inbounds nuw %struct.XMVDemuxContext, ptr %50, i32 0, i32 7
  store i32 %49, ptr %51, align 4, !tbaa !44
  %52 = load ptr, ptr %5, align 8, !tbaa !36
  %53 = call i32 @avio_rl16(ptr noundef %52)
  %54 = trunc i32 %53 to i16
  %55 = load ptr, ptr %4, align 8, !tbaa !33
  %56 = getelementptr inbounds nuw %struct.XMVDemuxContext, ptr %55, i32 0, i32 0
  store i16 %54, ptr %56, align 8, !tbaa !45
  %57 = load ptr, ptr %5, align 8, !tbaa !36
  %58 = call i64 @avio_skip(ptr noundef %57, i64 noundef 2)
  %59 = load ptr, ptr %4, align 8, !tbaa !33
  %60 = getelementptr inbounds nuw %struct.XMVDemuxContext, ptr %59, i32 0, i32 0
  %61 = load i16, ptr %60, align 8, !tbaa !45
  %62 = zext i16 %61 to i64
  %63 = call noalias ptr @av_calloc(i64 noundef %62, i64 noundef 80)
  %64 = load ptr, ptr %4, align 8, !tbaa !33
  %65 = getelementptr inbounds nuw %struct.XMVDemuxContext, ptr %64, i32 0, i32 11
  store ptr %63, ptr %65, align 8, !tbaa !46
  %66 = load ptr, ptr %4, align 8, !tbaa !33
  %67 = getelementptr inbounds nuw %struct.XMVDemuxContext, ptr %66, i32 0, i32 11
  %68 = load ptr, ptr %67, align 8, !tbaa !46
  %69 = icmp ne ptr %68, null
  br i1 %69, label %71, label %70

70:                                               ; preds = %39
  store i32 -12, ptr %2, align 4
  store i32 1, ptr %9, align 4
  br label %222

71:                                               ; preds = %39
  store i16 0, ptr %8, align 2, !tbaa !47
  br label %72

72:                                               ; preds = %189, %71
  %73 = load i16, ptr %8, align 2, !tbaa !47
  %74 = zext i16 %73 to i32
  %75 = load ptr, ptr %4, align 8, !tbaa !33
  %76 = getelementptr inbounds nuw %struct.XMVDemuxContext, ptr %75, i32 0, i32 0
  %77 = load i16, ptr %76, align 8, !tbaa !45
  %78 = zext i16 %77 to i32
  %79 = icmp slt i32 %74, %78
  br i1 %79, label %80, label %192

80:                                               ; preds = %72
  call void @llvm.lifetime.start.p0(i64 8, ptr %10) #8
  %81 = load ptr, ptr %4, align 8, !tbaa !33
  %82 = getelementptr inbounds nuw %struct.XMVDemuxContext, ptr %81, i32 0, i32 11
  %83 = load ptr, ptr %82, align 8, !tbaa !46
  %84 = load i16, ptr %8, align 2, !tbaa !47
  %85 = zext i16 %84 to i64
  %86 = getelementptr inbounds nuw %struct.XMVAudioPacket, ptr %83, i64 %85
  store ptr %86, ptr %10, align 8, !tbaa !48
  %87 = load ptr, ptr %5, align 8, !tbaa !36
  %88 = call i32 @avio_rl16(ptr noundef %87)
  %89 = trunc i32 %88 to i16
  %90 = load ptr, ptr %10, align 8, !tbaa !48
  %91 = getelementptr inbounds nuw %struct.XMVAudioPacket, ptr %90, i32 0, i32 2
  store i16 %89, ptr %91, align 8, !tbaa !49
  %92 = load ptr, ptr %5, align 8, !tbaa !36
  %93 = call i32 @avio_rl16(ptr noundef %92)
  %94 = trunc i32 %93 to i16
  %95 = load ptr, ptr %10, align 8, !tbaa !48
  %96 = getelementptr inbounds nuw %struct.XMVAudioPacket, ptr %95, i32 0, i32 3
  store i16 %94, ptr %96, align 2, !tbaa !51
  %97 = load ptr, ptr %5, align 8, !tbaa !36
  %98 = call i32 @avio_rl32(ptr noundef %97)
  %99 = load ptr, ptr %10, align 8, !tbaa !48
  %100 = getelementptr inbounds nuw %struct.XMVAudioPacket, ptr %99, i32 0, i32 4
  store i32 %98, ptr %100, align 4, !tbaa !52
  %101 = load ptr, ptr %5, align 8, !tbaa !36
  %102 = call i32 @avio_rl16(ptr noundef %101)
  %103 = trunc i32 %102 to i16
  %104 = load ptr, ptr %10, align 8, !tbaa !48
  %105 = getelementptr inbounds nuw %struct.XMVAudioPacket, ptr %104, i32 0, i32 5
  store i16 %103, ptr %105, align 8, !tbaa !53
  %106 = load ptr, ptr %5, align 8, !tbaa !36
  %107 = call i32 @avio_rl16(ptr noundef %106)
  %108 = trunc i32 %107 to i16
  %109 = load ptr, ptr %10, align 8, !tbaa !48
  %110 = getelementptr inbounds nuw %struct.XMVAudioPacket, ptr %109, i32 0, i32 7
  store i16 %108, ptr %110, align 8, !tbaa !54
  %111 = load ptr, ptr %10, align 8, !tbaa !48
  %112 = getelementptr inbounds nuw %struct.XMVAudioPacket, ptr %111, i32 0, i32 5
  %113 = load i16, ptr %112, align 8, !tbaa !53
  %114 = zext i16 %113 to i64
  %115 = load ptr, ptr %10, align 8, !tbaa !48
  %116 = getelementptr inbounds nuw %struct.XMVAudioPacket, ptr %115, i32 0, i32 4
  %117 = load i32, ptr %116, align 4, !tbaa !52
  %118 = sext i32 %117 to i64
  %119 = mul i64 %114, %118
  %120 = load ptr, ptr %10, align 8, !tbaa !48
  %121 = getelementptr inbounds nuw %struct.XMVAudioPacket, ptr %120, i32 0, i32 3
  %122 = load i16, ptr %121, align 2, !tbaa !51
  %123 = zext i16 %122 to i64
  %124 = mul i64 %119, %123
  %125 = load ptr, ptr %10, align 8, !tbaa !48
  %126 = getelementptr inbounds nuw %struct.XMVAudioPacket, ptr %125, i32 0, i32 6
  store i64 %124, ptr %126, align 8, !tbaa !55
  %127 = load ptr, ptr %10, align 8, !tbaa !48
  %128 = getelementptr inbounds nuw %struct.XMVAudioPacket, ptr %127, i32 0, i32 3
  %129 = load i16, ptr %128, align 2, !tbaa !51
  %130 = zext i16 %129 to i32
  %131 = mul nsw i32 36, %130
  %132 = load ptr, ptr %10, align 8, !tbaa !48
  %133 = getelementptr inbounds nuw %struct.XMVAudioPacket, ptr %132, i32 0, i32 8
  store i32 %131, ptr %133, align 4, !tbaa !56
  %134 = load ptr, ptr %10, align 8, !tbaa !48
  %135 = getelementptr inbounds nuw %struct.XMVAudioPacket, ptr %134, i32 0, i32 9
  store i16 64, ptr %135, align 8, !tbaa !57
  %136 = load ptr, ptr %10, align 8, !tbaa !48
  %137 = getelementptr inbounds nuw %struct.XMVAudioPacket, ptr %136, i32 0, i32 2
  %138 = load i16, ptr %137, align 8, !tbaa !49
  %139 = zext i16 %138 to i32
  %140 = load ptr, ptr %10, align 8, !tbaa !48
  %141 = getelementptr inbounds nuw %struct.XMVAudioPacket, ptr %140, i32 0, i32 5
  %142 = load i16, ptr %141, align 8, !tbaa !53
  %143 = zext i16 %142 to i32
  %144 = call i32 @ff_wav_codec_get_id(i32 noundef %139, i32 noundef %143)
  %145 = load ptr, ptr %10, align 8, !tbaa !48
  %146 = getelementptr inbounds nuw %struct.XMVAudioPacket, ptr %145, i32 0, i32 10
  store i32 %144, ptr %146, align 4, !tbaa !58
  %147 = load ptr, ptr %10, align 8, !tbaa !48
  %148 = getelementptr inbounds nuw %struct.XMVAudioPacket, ptr %147, i32 0, i32 1
  store i32 -1, ptr %148, align 4, !tbaa !59
  %149 = load ptr, ptr %10, align 8, !tbaa !48
  %150 = getelementptr inbounds nuw %struct.XMVAudioPacket, ptr %149, i32 0, i32 13
  store i32 0, ptr %150, align 8, !tbaa !60
  %151 = load ptr, ptr %10, align 8, !tbaa !48
  %152 = getelementptr inbounds nuw %struct.XMVAudioPacket, ptr %151, i32 0, i32 14
  store i64 0, ptr %152, align 8, !tbaa !61
  %153 = load ptr, ptr %10, align 8, !tbaa !48
  %154 = getelementptr inbounds nuw %struct.XMVAudioPacket, ptr %153, i32 0, i32 7
  %155 = load i16, ptr %154, align 8, !tbaa !54
  %156 = zext i16 %155 to i32
  %157 = and i32 %156, 7
  %158 = icmp ne i32 %157, 0
  br i1 %158, label %159, label %165

159:                                              ; preds = %80
  %160 = load ptr, ptr %3, align 8, !tbaa !16
  %161 = load ptr, ptr %10, align 8, !tbaa !48
  %162 = getelementptr inbounds nuw %struct.XMVAudioPacket, ptr %161, i32 0, i32 7
  %163 = load i16, ptr %162, align 8, !tbaa !54
  %164 = zext i16 %163 to i32
  call void (ptr, i32, ptr, ...) @av_log(ptr noundef %160, i32 noundef 24, ptr noundef @.str.4, i32 noundef %164)
  br label %165

165:                                              ; preds = %159, %80
  %166 = load ptr, ptr %10, align 8, !tbaa !48
  %167 = getelementptr inbounds nuw %struct.XMVAudioPacket, ptr %166, i32 0, i32 3
  %168 = load i16, ptr %167, align 2, !tbaa !51
  %169 = icmp ne i16 %168, 0
  br i1 %169, label %170, label %181

170:                                              ; preds = %165
  %171 = load ptr, ptr %10, align 8, !tbaa !48
  %172 = getelementptr inbounds nuw %struct.XMVAudioPacket, ptr %171, i32 0, i32 4
  %173 = load i32, ptr %172, align 4, !tbaa !52
  %174 = icmp sle i32 %173, 0
  br i1 %174, label %181, label %175

175:                                              ; preds = %170
  %176 = load ptr, ptr %10, align 8, !tbaa !48
  %177 = getelementptr inbounds nuw %struct.XMVAudioPacket, ptr %176, i32 0, i32 3
  %178 = load i16, ptr %177, align 2, !tbaa !51
  %179 = zext i16 %178 to i32
  %180 = icmp sge i32 %179, 1820
  br i1 %180, label %181, label %185

181:                                              ; preds = %175, %170, %165
  %182 = load ptr, ptr %3, align 8, !tbaa !16
  %183 = load i16, ptr %8, align 2, !tbaa !47
  %184 = zext i16 %183 to i32
  call void (ptr, i32, ptr, ...) @av_log(ptr noundef %182, i32 noundef 16, ptr noundef @.str.5, i32 noundef %184)
  store i32 -1094995529, ptr %2, align 4
  store i32 1, ptr %9, align 4
  br label %186

185:                                              ; preds = %175
  store i32 0, ptr %9, align 4
  br label %186

186:                                              ; preds = %185, %181
  call void @llvm.lifetime.end.p0(i64 8, ptr %10) #8
  %187 = load i32, ptr %9, align 4
  switch i32 %187, label %222 [
    i32 0, label %188
  ]

188:                                              ; preds = %186
  br label %189

189:                                              ; preds = %188
  %190 = load i16, ptr %8, align 2, !tbaa !47
  %191 = add i16 %190, 1
  store i16 %191, ptr %8, align 2, !tbaa !47
  br label %72, !llvm.loop !62

192:                                              ; preds = %72
  %193 = load ptr, ptr %5, align 8, !tbaa !36
  %194 = call i64 @avio_tell(ptr noundef %193)
  %195 = load ptr, ptr %4, align 8, !tbaa !33
  %196 = getelementptr inbounds nuw %struct.XMVDemuxContext, ptr %195, i32 0, i32 4
  store i64 %194, ptr %196, align 8, !tbaa !64
  %197 = load i32, ptr %7, align 4, !tbaa !15
  %198 = zext i32 %197 to i64
  %199 = load ptr, ptr %4, align 8, !tbaa !33
  %200 = getelementptr inbounds nuw %struct.XMVDemuxContext, ptr %199, i32 0, i32 4
  %201 = load i64, ptr %200, align 8, !tbaa !64
  %202 = icmp ult i64 %198, %201
  br i1 %202, label %203, label %204

203:                                              ; preds = %192
  store i32 -1094995529, ptr %2, align 4
  store i32 1, ptr %9, align 4
  br label %222

204:                                              ; preds = %192
  %205 = load i32, ptr %7, align 4, !tbaa !15
  %206 = zext i32 %205 to i64
  %207 = load ptr, ptr %4, align 8, !tbaa !33
  %208 = getelementptr inbounds nuw %struct.XMVDemuxContext, ptr %207, i32 0, i32 4
  %209 = load i64, ptr %208, align 8, !tbaa !64
  %210 = sub i64 %206, %209
  %211 = trunc i64 %210 to i32
  %212 = load ptr, ptr %4, align 8, !tbaa !33
  %213 = getelementptr inbounds nuw %struct.XMVDemuxContext, ptr %212, i32 0, i32 2
  store i32 %211, ptr %213, align 8, !tbaa !65
  %214 = load ptr, ptr %4, align 8, !tbaa !33
  %215 = getelementptr inbounds nuw %struct.XMVDemuxContext, ptr %214, i32 0, i32 0
  %216 = load i16, ptr %215, align 8, !tbaa !45
  %217 = zext i16 %216 to i32
  %218 = add nsw i32 %217, 1
  %219 = trunc i32 %218 to i16
  %220 = load ptr, ptr %4, align 8, !tbaa !33
  %221 = getelementptr inbounds nuw %struct.XMVDemuxContext, ptr %220, i32 0, i32 6
  store i16 %219, ptr %221, align 2, !tbaa !66
  store i32 0, ptr %2, align 4
  store i32 1, ptr %9, align 4
  br label %222

222:                                              ; preds = %204, %203, %186, %70
  call void @llvm.lifetime.end.p0(i64 2, ptr %8) #8
  call void @llvm.lifetime.end.p0(i64 4, ptr %7) #8
  call void @llvm.lifetime.end.p0(i64 4, ptr %6) #8
  call void @llvm.lifetime.end.p0(i64 8, ptr %5) #8
  call void @llvm.lifetime.end.p0(i64 8, ptr %4) #8
  %223 = load i32, ptr %2, align 4
  ret i32 %223
}