; Function Attrs: nounwind uwtable
define internal range(i32 -1094995529, 1) i32 @xmv_read_header(ptr noundef %0) #1 {
  %2 = getelementptr inbounds nuw i8, ptr %0, i64 24
  %3 = load ptr, ptr %2, align 8, !tbaa !13
  %4 = getelementptr inbounds nuw i8, ptr %0, i64 32
  %5 = load ptr, ptr %4, align 8, !tbaa !28
  %6 = getelementptr inbounds nuw i8, ptr %0, i64 40
  %7 = load i32, ptr %6, align 8, !tbaa !29
  %8 = or i32 %7, 1
  store i32 %8, ptr %6, align 8, !tbaa !29
  %9 = tail call i64 @avio_skip(ptr noundef %5, i64 noundef 4) #7
  %10 = tail call i32 @avio_rl32(ptr noundef %5) #7
  %11 = tail call i64 @avio_skip(ptr noundef %5, i64 noundef 4) #7
  %12 = tail call i64 @avio_skip(ptr noundef %5, i64 noundef 4) #7
  %13 = tail call i32 @avio_rl32(ptr noundef %5) #7
  switch i32 %13, label %14 [
    i32 4, label %15
    i32 2, label %15
  ]

14:                                               ; preds = %1
  tail call void (ptr, ptr, ...) @avpriv_request_sample(ptr noundef nonnull %0, ptr noundef nonnull @.str.3, i32 noundef %13) #7
  br label %15

15:                                               ; preds = %1, %1, %14
  %16 = tail call i32 @avio_rl32(ptr noundef %5) #7
  %17 = getelementptr inbounds nuw i8, ptr %3, i64 40
  store i32 %16, ptr %17, align 8, !tbaa !30
  %18 = tail call i32 @avio_rl32(ptr noundef %5) #7
  %19 = getelementptr inbounds nuw i8, ptr %3, i64 44
  store i32 %18, ptr %19, align 4, !tbaa !35
  %20 = tail call i32 @avio_rl32(ptr noundef %5) #7
  %21 = getelementptr inbounds nuw i8, ptr %3, i64 36
  store i32 %20, ptr %21, align 4, !tbaa !36
  %22 = tail call i32 @avio_rl16(ptr noundef %5) #7
  %23 = trunc i32 %22 to i16
  store i16 %23, ptr %3, align 8, !tbaa !37
  %24 = tail call i64 @avio_skip(ptr noundef %5, i64 noundef 2) #7
  %25 = load i16, ptr %3, align 8, !tbaa !37
  %26 = zext i16 %25 to i64
  %27 = tail call noalias ptr @av_calloc(i64 noundef %26, i64 noundef 80) #7
  %28 = getelementptr inbounds nuw i8, ptr %3, i64 104
  store ptr %27, ptr %28, align 8, !tbaa !38
  %.not = icmp eq ptr %27, null
  br i1 %.not, label %93, label %.preheader

.preheader:                                       ; preds = %15
  %29 = load i16, ptr %3, align 8, !tbaa !37
  %.not82 = icmp eq i16 %29, 0
  br i1 %.not82, label %._crit_edge, label %.lr.ph

.lr.ph:                                           ; preds = %.preheader, %78
  %indvars.iv = phi i64 [ %indvars.iv.next, %78 ], [ 0, %.preheader ]
  %30 = load ptr, ptr %28, align 8, !tbaa !38
  %31 = getelementptr inbounds nuw %struct.XMVAudioPacket, ptr %30, i64 %indvars.iv
  %32 = tail call i32 @avio_rl16(ptr noundef %5) #7
  %33 = trunc i32 %32 to i16
  %34 = getelementptr inbounds nuw i8, ptr %31, i64 8
  store i16 %33, ptr %34, align 8, !tbaa !39
  %35 = tail call i32 @avio_rl16(ptr noundef %5) #7
  %36 = trunc i32 %35 to i16
  %37 = getelementptr inbounds nuw i8, ptr %31, i64 10
  store i16 %36, ptr %37, align 2, !tbaa !41
  %38 = tail call i32 @avio_rl32(ptr noundef %5) #7
  %39 = getelementptr inbounds nuw i8, ptr %31, i64 12
  store i32 %38, ptr %39, align 4, !tbaa !42
  %40 = tail call i32 @avio_rl16(ptr noundef %5) #7
  %41 = trunc i32 %40 to i16
  %42 = getelementptr inbounds nuw i8, ptr %31, i64 16
  store i16 %41, ptr %42, align 8, !tbaa !43
  %43 = tail call i32 @avio_rl16(ptr noundef %5) #7
  %44 = trunc i32 %43 to i16
  %45 = getelementptr inbounds nuw i8, ptr %31, i64 32
  store i16 %44, ptr %45, align 8, !tbaa !44
  %46 = load i16, ptr %42, align 8, !tbaa !43
  %47 = zext i16 %46 to i64
  %48 = load i32, ptr %39, align 4, !tbaa !42
  %49 = sext i32 %48 to i64
  %50 = mul nsw i64 %49, %47
  %51 = load i16, ptr %37, align 2, !tbaa !41
  %52 = zext i16 %51 to i64
  %53 = mul nsw i64 %50, %52
  %54 = getelementptr inbounds nuw i8, ptr %31, i64 24
  store i64 %53, ptr %54, align 8, !tbaa !45
  %55 = zext i16 %51 to i32
  %56 = mul nuw nsw i32 %55, 36
  %57 = getelementptr inbounds nuw i8, ptr %31, i64 36
  store i32 %56, ptr %57, align 4, !tbaa !46
  %58 = getelementptr inbounds nuw i8, ptr %31, i64 40
  store i16 64, ptr %58, align 8, !tbaa !47
  %59 = load i16, ptr %34, align 8, !tbaa !39
  %60 = zext i16 %59 to i32
  %61 = zext i16 %46 to i32
  %62 = tail call i32 @ff_wav_codec_get_id(i32 noundef %60, i32 noundef %61) #7
  %63 = getelementptr inbounds nuw i8, ptr %31, i64 44
  store i32 %62, ptr %63, align 4, !tbaa !48
  %64 = getelementptr inbounds nuw i8, ptr %31, i64 4
  store i32 -1, ptr %64, align 4, !tbaa !49
  %65 = getelementptr inbounds nuw i8, ptr %31, i64 64
  store i32 0, ptr %65, align 8, !tbaa !50
  %66 = getelementptr inbounds nuw i8, ptr %31, i64 72
  store i64 0, ptr %66, align 8, !tbaa !51
  %67 = load i16, ptr %45, align 8, !tbaa !44
  %68 = zext i16 %67 to i32
  %69 = and i32 %68, 7
  %.not78 = icmp eq i32 %69, 0
  br i1 %.not78, label %71, label %70

70:                                               ; preds = %.lr.ph
  tail call void (ptr, i32, ptr, ...) @av_log(ptr noundef %0, i32 noundef 24, ptr noundef nonnull @.str.4, i32 noundef %68) #7
  br label %71

71:                                               ; preds = %70, %.lr.ph
  %72 = load i16, ptr %37, align 2, !tbaa !41
  %.not79 = icmp eq i16 %72, 0
  br i1 %.not79, label %.critedge, label %73

73:                                               ; preds = %71
  %74 = load i32, ptr %39, align 4, !tbaa !42
  %75 = icmp slt i32 %74, 1
  %76 = icmp ugt i16 %72, 1819
  %or.cond = or i1 %76, %75
  br i1 %or.cond, label %.critedge, label %78

.critedge:                                        ; preds = %73, %71
  %77 = trunc nuw nsw i64 %indvars.iv to i32
  tail call void (ptr, i32, ptr, ...) @av_log(ptr noundef %0, i32 noundef 16, ptr noundef nonnull @.str.5, i32 noundef %77) #7
  br label %93

78:                                               ; preds = %73
  %indvars.iv.next = add nuw nsw i64 %indvars.iv, 1
  %79 = load i16, ptr %3, align 8, !tbaa !37
  %80 = zext i16 %79 to i64
  %81 = icmp samesign ult i64 %indvars.iv.next, %80
  br i1 %81, label %.lr.ph, label %._crit_edge, !llvm.loop !52

._crit_edge:                                      ; preds = %78, %.preheader
  %82 = tail call i64 @avio_seek(ptr noundef %5, i64 noundef 0, i32 noundef 1) #7
  %83 = getelementptr inbounds nuw i8, ptr %3, i64 24
  store i64 %82, ptr %83, align 8, !tbaa !54
  %84 = zext i32 %10 to i64
  %85 = icmp ugt i64 %82, %84
  br i1 %85, label %93, label %86

86:                                               ; preds = %._crit_edge
  %87 = trunc nuw i64 %82 to i32
  %88 = sub i32 %10, %87
  %89 = getelementptr inbounds nuw i8, ptr %3, i64 8
  store i32 %88, ptr %89, align 8, !tbaa !55
  %90 = load i16, ptr %3, align 8, !tbaa !37
  %91 = add i16 %90, 1
  %92 = getelementptr inbounds nuw i8, ptr %3, i64 34
  store i16 %91, ptr %92, align 2, !tbaa !56
  br label %93

93:                                               ; preds = %._crit_edge, %.critedge, %15, %86
  %.0 = phi i32 [ 0, %86 ], [ -12, %15 ], [ -1094995529, %.critedge ], [ -1094995529, %._crit_edge ]
  ret i32 %.0
}